; ModuleID = '23/1139.c'
source_filename = "23/1139.c"
target datalayout = "e-m:e-p270:32:32-p271:32:32-p272:64:64-i64:64-f80:128-n8:16:32:64-S128"
target triple = "x86_64-pc-linux-gnu"

@.str = private unnamed_addr constant [3 x i8] c"%s\00", align 1
@.str.1 = private unnamed_addr constant [4 x i8] c" %s\00", align 1

; Function Attrs: noinline nounwind uwtable
define dso_local i32 @main() #0 {
  %1 = alloca i32, align 4
  %2 = alloca i32, align 4
  %3 = alloca i32, align 4
  %4 = alloca i32, align 4
  %5 = alloca i32, align 4
  %6 = alloca i8, align 1
  %7 = alloca [100 x [20 x i8]], align 16
  store i32 0, i32* %1, align 4
  store i32 0, i32* %4, align 4
  store i32 1, i32* %5, align 4
  %8 = bitcast [100 x [20 x i8]]* %7 to i8*
  call void @llvm.memset.p0i8.i64(i8* align 16 %8, i8 0, i64 2000, i1 false)
  store i32 0, i32* %2, align 4
  br label %9

9:                                                ; preds = %22, %0
  %10 = load i32, i32* %2, align 4
  %11 = sext i32 %10 to i64
  %12 = getelementptr inbounds [100 x [20 x i8]], [100 x [20 x i8]]* %7, i64 0, i64 %11
  %13 = getelementptr inbounds [20 x i8], [20 x i8]* %12, i64 0, i64 0
  %14 = call i32 (i8*, ...) @__isoc99_scanf(i8* getelementptr inbounds ([3 x i8], [3 x i8]* @.str, i64 0, i64 0), i8* %13)
  %15 = call i32 @getchar()
  %16 = icmp eq i32 %15, 10
  %17 = zext i1 %16 to i32
  %18 = trunc i32 %17 to i8
  store i8 %18, i8* %6, align 1
  %19 = icmp ne i8 %18, 0
  br i1 %19, label %20, label %21

20:                                               ; preds = %9
  br label %25

21:                                               ; preds = %9
  br label %22

22:                                               ; preds = %21
  %23 = load i32, i32* %2, align 4
  %24 = add nsw i32 %23, 1
  store i32 %24, i32* %2, align 4
  br label %9

25:                                               ; preds = %20
  %26 = load i32, i32* %2, align 4
  %27 = sext i32 %26 to i64
  %28 = getelementptr inbounds [100 x [20 x i8]], [100 x [20 x i8]]* %7, i64 0, i64 %27
  %29 = getelementptr inbounds [20 x i8], [20 x i8]* %28, i64 0, i64 0
  %30 = call i32 (i8*, ...) @printf(i8* getelementptr inbounds ([3 x i8], [3 x i8]* @.str, i64 0, i64 0), i8* %29)
  %31 = load i32, i32* %2, align 4
  %32 = sub nsw i32 %31, 1
  store i32 %32, i32* %3, align 4
  br label %33

33:                                               ; preds = %42, %25
  %34 = load i32, i32* %3, align 4
  %35 = icmp sge i32 %34, 0
  br i1 %35, label %36, label %45

36:                                               ; preds = %33
  %37 = load i32, i32* %3, align 4
  %38 = sext i32 %37 to i64
  %39 = getelementptr inbounds [100 x [20 x i8]], [100 x [20 x i8]]* %7, i64 0, i64 %38
  %40 = getelementptr inbounds [20 x i8], [20 x i8]* %39, i64 0, i64 0
  %41 = call i32 (i8*, ...) @printf(i8* getelementptr inbounds ([4 x i8], [4 x i8]* @.str.1, i64 0, i64 0), i8* %40)
  br label %42

42:                                               ; preds = %36
  %43 = load i32, i32* %3, align 4
  %44 = add nsw i32 %43, -1
  store i32 %44, i32* %3, align 4
  br label %33

45:                                               ; preds = %33
  ret i32 0
}

; Function Attrs: argmemonly nounwind willreturn
declare void @llvm.memset.p0i8.i64(i8* nocapture writeonly, i8, i64, i1 immarg) #1

declare dso_local i32 @__isoc99_scanf(i8*, ...) #2

declare dso_local i32 @getchar() #2

declare dso_local i32 @printf(i8*, ...) #2


!llvm.module.flags = !{!0}
!llvm.ident = !{!1}

!0 = !{i32 1, !"wchar_size", i32 4}
!1 = !{!"clang version 10.0.0-4ubuntu1 "}
